; Function Attrs: mustprogress uwtable
define void @_ZN6icu_7524CollationElementIterator7setTextERNS_17CharacterIteratorER10UErrorCode(ptr noundef nonnull align 8 dereferenceable(104) %this, ptr noundef nonnull align 8 dereferenceable(24) %source, ptr nocapture noundef nonnull align 4 dereferenceable(4) %status) local_unnamed_addr #1 align 2 {
entry:
  %0 = load i32, ptr %status, align 4
  %cmp.i = icmp slt i32 %0, 1
  br i1 %cmp.i, label %if.end, label %return

if.end:                                           ; preds = %entry
  %string_ = getelementptr inbounds i8, ptr %this, i64 40
  %vtable = load ptr, ptr %source, align 8
  %vfn = getelementptr inbounds i8, ptr %vtable, i64 208
  %1 = load ptr, ptr %vfn, align 8
  tail call void %1(ptr noundef nonnull align 8 dereferenceable(24) %source, ptr noundef nonnull align 8 dereferenceable(64) %string_)
  tail call void @_ZN6icu_7524CollationElementIterator7setTextERKNS_13UnicodeStringER10UErrorCode(ptr noundef nonnull align 8 dereferenceable(104) %this, ptr noundef nonnull align 8 dereferenceable(64) %string_, ptr noundef nonnull align 4 dereferenceable(4) %status)
  br label %return

return:                                           ; preds = %entry, %if.end
  ret void
}